target datalayout = "e-m:e-p270:32:32-p271:32:32-p272:64:64-i64:64-i128:128-f80:128-n8:16:32:64-S128"
target triple = "x86_64-pc-linux-gnu"

%struct.slurm_step_id_msg = type { i64, i32, i32, i32 }
%struct.listpids_info = type { i32, i32, i32, i32, ptr }
%struct.slurmstepd_task_info_t = type { i32, i8, i32, i32, i32 }

@exit_code = external global i32, align 4
@stderr = external global ptr, align 8
@.str.22 = private unnamed_addr constant [11 x i8] c"info_job.c\00", align 1
@.str.199 = private unnamed_addr constant [33 x i8] c"%s does not exist on this node.\0A\00", align 1
@.str.200 = private unnamed_addr constant [32 x i8] c"Unable to connect to slurmstepd\00", align 1
@__func__._list_pids_one_step = private unnamed_addr constant [20 x i8] c"_list_pids_one_step\00", align 1

; Function Attrs: nounwind uwtable
define internal zeroext i1 @_in_task_array(i32 noundef %0, ptr noundef %1, i32 noundef %2) #0 {
  %4 = alloca i1, align 1
  %5 = alloca i32, align 4
  %6 = alloca ptr, align 8
  %7 = alloca i32, align 4
  %8 = alloca i32, align 4
  %9 = alloca i32, align 4
  store i32 %0, ptr %5, align 4
  store ptr %1, ptr %6, align 8
  store i32 %2, ptr %7, align 4
  call void @llvm.lifetime.start.p0(i64 4, ptr %8) #9
  store i32 0, ptr %8, align 4
  br label %10

10:                                               ; preds = %25, %3
  %11 = load i32, ptr %8, align 4
  %12 = load i32, ptr %7, align 4
  %13 = icmp ult i32 %11, %12
  br i1 %13, label %14, label %28

14:                                               ; preds = %10
  %15 = load i32, ptr %5, align 4
  %16 = load ptr, ptr %6, align 8
  %17 = load i32, ptr %8, align 4
  %18 = sext i32 %17 to i64
  %19 = getelementptr inbounds %struct.slurmstepd_task_info_t, ptr %16, i64 %18
  %20 = getelementptr inbounds nuw %struct.slurmstepd_task_info_t, ptr %19, i32 0, i32 4
  %21 = load i32, ptr %20, align 4
  %22 = icmp eq i32 %15, %21
  br i1 %22, label %23, label %24

23:                                               ; preds = %14
  store i1 true, ptr %4, align 1
  store i32 1, ptr %9, align 4
  br label %29

24:                                               ; preds = %14
  br label %25

25:                                               ; preds = %24
  %26 = load i32, ptr %8, align 4
  %27 = add nsw i32 %26, 1
  store i32 %27, ptr %8, align 4
  br label %10, !llvm.loop !39

28:                                               ; preds = %10
  store i1 false, ptr %4, align 1
  store i32 1, ptr %9, align 4
  br label %29

29:                                               ; preds = %28, %23
  call void @llvm.lifetime.end.p0(i64 4, ptr %8) #9
  %30 = load i1, ptr %4, align 1
  ret i1 %30
}

; Function Attrs: nounwind uwtable
define internal void @_list_pids_one_step(ptr noundef %0, ptr noundef %1, ptr noundef %2) #0 {
  %4 = alloca ptr, align 8
  %5 = alloca ptr, align 8
  %6 = alloca ptr, align 8
  %7 = alloca i32, align 4
  %8 = alloca ptr, align 8
  %9 = alloca ptr, align 8
  %10 = alloca i32, align 4
  %11 = alloca i32, align 4
  %12 = alloca i32, align 4
  %13 = alloca i16, align 2
  %14 = alloca [64 x i8], align 16
  %15 = alloca i32, align 4
  %16 = alloca ptr, align 8
  %17 = alloca ptr, align 8
  store ptr %0, ptr %4, align 8
  store ptr %1, ptr %5, align 8
  store ptr %2, ptr %6, align 8
  call void @llvm.lifetime.start.p0(i64 4, ptr %7) #9
  call void @llvm.lifetime.start.p0(i64 8, ptr %8) #9
  store ptr null, ptr %8, align 8
  call void @llvm.lifetime.start.p0(i64 8, ptr %9) #9
  store ptr null, ptr %9, align 8
  call void @llvm.lifetime.start.p0(i64 4, ptr %10) #9
  store i32 0, ptr %10, align 4
  call void @llvm.lifetime.start.p0(i64 4, ptr %11) #9
  store i32 0, ptr %11, align 4
  call void @llvm.lifetime.start.p0(i64 4, ptr %12) #9
  call void @llvm.lifetime.start.p0(i64 2, ptr %13) #9
  call void @llvm.lifetime.start.p0(i64 64, ptr %14) #9
  %18 = load ptr, ptr %4, align 8
  %19 = load ptr, ptr %5, align 8
  %20 = call i32 @stepd_connect(ptr noundef null, ptr noundef %18, ptr noundef %19, ptr noundef %13)
  store i32 %20, ptr %7, align 4
  %21 = load i32, ptr %7, align 4
  %22 = icmp eq i32 %21, -1
  br i1 %22, label %23, label %35

23:                                               ; preds = %3
  store i32 1, ptr @exit_code, align 4
  %24 = call ptr @__errno_location() #10
  %25 = load i32, ptr %24, align 4
  %26 = icmp eq i32 %25, 2
  br i1 %26, label %27, label %33

27:                                               ; preds = %23
  %28 = load ptr, ptr @stderr, align 8
  %29 = load ptr, ptr %5, align 8
  %30 = getelementptr inbounds [64 x i8], ptr %14, i64 0, i64 0
  %31 = call ptr @log_build_step_id_str(ptr noundef %29, ptr noundef %30, i32 noundef 64, i16 noundef zeroext 0)
  %32 = call i32 (ptr, ptr, ...) @fprintf(ptr noundef %28, ptr noundef @.str.199, ptr noundef %31) #9
  store i32 1, ptr @exit_code, align 4
  br label %34

33:                                               ; preds = %23
  call void @perror(ptr noundef @.str.200)
  br label %34

34:                                               ; preds = %33, %27
  store i32 1, ptr %15, align 4
  br label %143

35:                                               ; preds = %3
  %36 = load ptr, ptr %5, align 8
  %37 = getelementptr inbounds [64 x i8], ptr %14, i64 0, i64 0
  %38 = call ptr @log_build_step_id_str(ptr noundef %36, ptr noundef %37, i32 noundef 64, i16 noundef zeroext 6)
  %39 = load i32, ptr %7, align 4
  %40 = load i16, ptr %13, align 2
  %41 = call i32 @stepd_task_info(i32 noundef %39, i16 noundef zeroext %40, ptr noundef %8, ptr noundef %11)
  store i32 0, ptr %12, align 4
  br label %42

42:                                               ; preds = %92, %35
  %43 = load i32, ptr %12, align 4
  %44 = load i32, ptr %11, align 4
  %45 = icmp slt i32 %43, %44
  br i1 %45, label %46, label %95

46:                                               ; preds = %42
  %47 = load ptr, ptr %8, align 8
  %48 = load i32, ptr %12, align 4
  %49 = sext i32 %48 to i64
  %50 = getelementptr inbounds %struct.slurmstepd_task_info_t, ptr %47, i64 %49
  %51 = getelementptr inbounds nuw %struct.slurmstepd_task_info_t, ptr %50, i32 0, i32 1
  %52 = load i8, ptr %51, align 4, !range !26, !noundef !27
  %53 = trunc i8 %52 to i1
  br i1 %53, label %54, label %55

54:                                               ; preds = %46
  br label %92

55:                                               ; preds = %46
  call void @llvm.lifetime.start.p0(i64 8, ptr %16) #9
  %56 = call ptr @slurm_xcalloc(i64 noundef 1, i64 noundef 24, i1 noundef zeroext true, i1 noundef zeroext false, ptr noundef @.str.22, i32 noundef 1677, ptr noundef @__func__._list_pids_one_step)
  store ptr %56, ptr %16, align 8
  %57 = load ptr, ptr %8, align 8
  %58 = load i32, ptr %12, align 4
  %59 = sext i32 %58 to i64
  %60 = getelementptr inbounds %struct.slurmstepd_task_info_t, ptr %57, i64 %59
  %61 = getelementptr inbounds nuw %struct.slurmstepd_task_info_t, ptr %60, i32 0, i32 2
  %62 = load i32, ptr %61, align 4
  %63 = load ptr, ptr %16, align 8
  %64 = getelementptr inbounds nuw %struct.listpids_info, ptr %63, i32 0, i32 0
  store i32 %62, ptr %64, align 8
  %65 = load ptr, ptr %5, align 8
  %66 = getelementptr inbounds nuw %struct.slurm_step_id_msg, ptr %65, i32 0, i32 1
  %67 = load i32, ptr %66, align 8
  %68 = load ptr, ptr %16, align 8
  %69 = getelementptr inbounds nuw %struct.listpids_info, ptr %68, i32 0, i32 1
  store i32 %67, ptr %69, align 4
  %70 = load ptr, ptr %8, align 8
  %71 = load i32, ptr %12, align 4
  %72 = sext i32 %71 to i64
  %73 = getelementptr inbounds %struct.slurmstepd_task_info_t, ptr %70, i64 %72
  %74 = getelementptr inbounds nuw %struct.slurmstepd_task_info_t, ptr %73, i32 0, i32 3
  %75 = load i32, ptr %74, align 4
  %76 = load ptr, ptr %16, align 8
  %77 = getelementptr inbounds nuw %struct.listpids_info, ptr %76, i32 0, i32 2
  store i32 %75, ptr %77, align 8
  %78 = load ptr, ptr %8, align 8
  %79 = load i32, ptr %12, align 4
  %80 = sext i32 %79 to i64
  %81 = getelementptr inbounds %struct.slurmstepd_task_info_t, ptr %78, i64 %80
  %82 = getelementptr inbounds nuw %struct.slurmstepd_task_info_t, ptr %81, i32 0, i32 4
  %83 = load i32, ptr %82, align 4
  %84 = load ptr, ptr %16, align 8
  %85 = getelementptr inbounds nuw %struct.listpids_info, ptr %84, i32 0, i32 3
  store i32 %83, ptr %85, align 4
  %86 = getelementptr inbounds [64 x i8], ptr %14, i64 0, i64 0
  %87 = call ptr @xstrdup(ptr noundef %86)
  %88 = load ptr, ptr %16, align 8
  %89 = getelementptr inbounds nuw %struct.listpids_info, ptr %88, i32 0, i32 4
  store ptr %87, ptr %89, align 8
  %90 = load ptr, ptr %6, align 8
  %91 = load ptr, ptr %16, align 8
  call void @list_append(ptr noundef %90, ptr noundef %91)
  call void @llvm.lifetime.end.p0(i64 8, ptr %16) #9
  br label %92

92:                                               ; preds = %55, %54
  %93 = load i32, ptr %12, align 4
  %94 = add nsw i32 %93, 1
  store i32 %94, ptr %12, align 4
  br label %42, !llvm.loop !37

95:                                               ; preds = %42
  %96 = load i32, ptr %7, align 4
  %97 = load i16, ptr %13, align 2
  %98 = call i32 @stepd_list_pids(i32 noundef %96, i16 noundef zeroext %97, ptr noundef %9, ptr noundef %10)
  store i32 0, ptr %12, align 4
  br label %99

99:                                               ; preds = %137, %95
  %100 = load i32, ptr %12, align 4
  %101 = load i32, ptr %10, align 4
  %102 = icmp ult i32 %100, %101
  br i1 %102, label %103, label %140

103:                                              ; preds = %99
  %104 = load ptr, ptr %9, align 8
  %105 = load i32, ptr %12, align 4
  %106 = sext i32 %105 to i64
  %107 = getelementptr inbounds i32, ptr %104, i64 %106
  %108 = load i32, ptr %107, align 4
  %109 = load ptr, ptr %8, align 8
  %110 = load i32, ptr %11, align 4
  %111 = call zeroext i1 @_in_task_array(i32 noundef %108, ptr noundef %109, i32 noundef %110)
  br i1 %111, label %112, label %113

112:                                              ; preds = %103
  br label %137

113:                                              ; preds = %103
  call void @llvm.lifetime.start.p0(i64 8, ptr %17) #9
  %114 = call ptr @slurm_xcalloc(i64 noundef 1, i64 noundef 24, i1 noundef zeroext true, i1 noundef zeroext false, ptr noundef @.str.22, i32 noundef 1694, ptr noundef @__func__._list_pids_one_step)
  store ptr %114, ptr %17, align 8
  %115 = load ptr, ptr %17, align 8
  %116 = getelementptr inbounds nuw %struct.listpids_info, ptr %115, i32 0, i32 0
  store i32 -2, ptr %116, align 8
  %117 = load ptr, ptr %5, align 8
  %118 = getelementptr inbounds nuw %struct.slurm_step_id_msg, ptr %117, i32 0, i32 1
  %119 = load i32, ptr %118, align 8
  %120 = load ptr, ptr %17, align 8
  %121 = getelementptr inbounds nuw %struct.listpids_info, ptr %120, i32 0, i32 1
  store i32 %119, ptr %121, align 4
  %122 = load ptr, ptr %17, align 8
  %123 = getelementptr inbounds nuw %struct.listpids_info, ptr %122, i32 0, i32 2
  store i32 -2, ptr %123, align 8
  %124 = load ptr, ptr %9, align 8
  %125 = load i32, ptr %12, align 4
  %126 = sext i32 %125 to i64
  %127 = getelementptr inbounds i32, ptr %124, i64 %126
  %128 = load i32, ptr %127, align 4
  %129 = load ptr, ptr %17, align 8
  %130 = getelementptr inbounds nuw %struct.listpids_info, ptr %129, i32 0, i32 3
  store i32 %128, ptr %130, align 4
  %131 = getelementptr inbounds [64 x i8], ptr %14, i64 0, i64 0
  %132 = call ptr @xstrdup(ptr noundef %131)
  %133 = load ptr, ptr %17, align 8
  %134 = getelementptr inbounds nuw %struct.listpids_info, ptr %133, i32 0, i32 4
  store ptr %132, ptr %134, align 8
  %135 = load ptr, ptr %6, align 8
  %136 = load ptr, ptr %17, align 8
  call void @list_append(ptr noundef %135, ptr noundef %136)
  call void @llvm.lifetime.end.p0(i64 8, ptr %17) #9
  br label %137

137:                                              ; preds = %113, %112
  %138 = load i32, ptr %12, align 4
  %139 = add nsw i32 %138, 1
  store i32 %139, ptr %12, align 4
  br label %99, !llvm.loop !38

140:                                              ; preds = %99
  call void @slurm_xfree(ptr noundef %9)
  call void @slurm_xfree(ptr noundef %8)
  %141 = load i32, ptr %7, align 4
  %142 = call i32 @close(i32 noundef %141)
  store i32 0, ptr %15, align 4
  br label %143

143:                                              ; preds = %140, %34
  call void @llvm.lifetime.end.p0(i64 64, ptr %14) #9
  call void @llvm.lifetime.end.p0(i64 2, ptr %13) #9
  call void @llvm.lifetime.end.p0(i64 4, ptr %12) #9
  call void @llvm.lifetime.end.p0(i64 4, ptr %11) #9
  call void @llvm.lifetime.end.p0(i64 4, ptr %10) #9
  call void @llvm.lifetime.end.p0(i64 8, ptr %9) #9
  call void @llvm.lifetime.end.p0(i64 8, ptr %8) #9
  call void @llvm.lifetime.end.p0(i64 4, ptr %7) #9
  %144 = load i32, ptr %15, align 4
  switch i32 %144, label %146 [
    i32 0, label %145
    i32 1, label %145
  ]

145:                                              ; preds = %143, %143
  ret void

146:                                              ; preds = %143
  unreachable
}