; Function Attrs: nounwind uwtable
define internal fastcc void @_list_pids_one_step(ptr noundef %0, ptr noundef nonnull %1, ptr noundef %2) unnamed_addr #0 {
  %4 = alloca ptr, align 8
  %5 = alloca ptr, align 8
  %6 = alloca i32, align 4
  %7 = alloca i32, align 4
  %8 = alloca i16, align 2
  %9 = alloca [64 x i8], align 16
  call void @llvm.lifetime.start.p0(i64 8, ptr nonnull %4) #16
  store ptr null, ptr %4, align 8
  call void @llvm.lifetime.start.p0(i64 8, ptr nonnull %5) #16
  store ptr null, ptr %5, align 8
  call void @llvm.lifetime.start.p0(i64 4, ptr nonnull %6) #16
  store i32 0, ptr %6, align 4
  call void @llvm.lifetime.start.p0(i64 4, ptr nonnull %7) #16
  store i32 0, ptr %7, align 4
  call void @llvm.lifetime.start.p0(i64 2, ptr nonnull %8) #16
  call void @llvm.lifetime.start.p0(i64 64, ptr nonnull %9) #16
  %10 = call i32 @stepd_connect(ptr noundef null, ptr noundef %0, ptr noundef nonnull %1, ptr noundef nonnull %8) #16
  %11 = icmp eq i32 %10, -1
  br i1 %11, label %12, label %21

12:                                               ; preds = %3
  store i32 1, ptr @exit_code, align 4
  %13 = tail call ptr @__errno_location() #17
  %14 = load i32, ptr %13, align 4
  %15 = icmp eq i32 %14, 2
  br i1 %15, label %16, label %20

16:                                               ; preds = %12
  %17 = load ptr, ptr @stderr, align 8
  %18 = call ptr @log_build_step_id_str(ptr noundef nonnull %1, ptr noundef nonnull %9, i32 noundef 64, i16 noundef zeroext 0) #16
  %19 = call i32 (ptr, ptr, ...) @fprintf(ptr noundef %17, ptr noundef nonnull @.str.199, ptr noundef %18) #20
  store i32 1, ptr @exit_code, align 4
  br label %83

20:                                               ; preds = %12
  call void @perror(ptr noundef nonnull @.str.200) #18
  br label %83

21:                                               ; preds = %3
  %22 = call ptr @log_build_step_id_str(ptr noundef nonnull %1, ptr noundef nonnull %9, i32 noundef 64, i16 noundef zeroext 6) #16
  %23 = load i16, ptr %8, align 2
  %24 = call i32 @stepd_task_info(i32 noundef %10, i16 noundef zeroext %23, ptr noundef nonnull %4, ptr noundef nonnull %7) #16
  %25 = load i32, ptr %7, align 4
  %26 = icmp sgt i32 %25, 0
  br i1 %26, label %.lr.ph, label %._crit_edge

.lr.ph:                                           ; preds = %21
  %27 = getelementptr inbounds nuw i8, ptr %1, i64 8
  br label %28

28:                                               ; preds = %.lr.ph, %50
  %29 = phi i32 [ %25, %.lr.ph ], [ %51, %50 ]
  %indvars.iv = phi i64 [ 0, %.lr.ph ], [ %indvars.iv.next, %50 ]
  %30 = load ptr, ptr %4, align 8
  %31 = getelementptr inbounds nuw %struct.slurmstepd_task_info_t, ptr %30, i64 %indvars.iv, i32 1
  %32 = load i8, ptr %31, align 4, !range !34, !noundef !35
  %33 = trunc nuw i8 %32 to i1
  br i1 %33, label %50, label %34

34:                                               ; preds = %28
  %35 = call ptr @slurm_xcalloc(i64 noundef 1, i64 noundef 24, i1 noundef zeroext true, i1 noundef zeroext false, ptr noundef nonnull @.str.22, i32 noundef 1677, ptr noundef nonnull @__func__._list_pids_one_step) #16
  %36 = load ptr, ptr %4, align 8
  %37 = getelementptr inbounds nuw %struct.slurmstepd_task_info_t, ptr %36, i64 %indvars.iv, i32 2
  %38 = load i32, ptr %37, align 4
  store i32 %38, ptr %35, align 8
  %39 = load i32, ptr %27, align 8
  %40 = getelementptr inbounds nuw i8, ptr %35, i64 4
  store i32 %39, ptr %40, align 4
  %41 = load ptr, ptr %4, align 8
  %42 = getelementptr inbounds nuw %struct.slurmstepd_task_info_t, ptr %41, i64 %indvars.iv, i32 3
  %43 = load i32, ptr %42, align 4
  %44 = getelementptr inbounds nuw i8, ptr %35, i64 8
  store i32 %43, ptr %44, align 8
  %45 = getelementptr inbounds nuw %struct.slurmstepd_task_info_t, ptr %41, i64 %indvars.iv, i32 4
  %46 = load i32, ptr %45, align 4
  %47 = getelementptr inbounds nuw i8, ptr %35, i64 12
  store i32 %46, ptr %47, align 4
  %48 = call ptr @xstrdup(ptr noundef nonnull %9) #16
  %49 = getelementptr inbounds nuw i8, ptr %35, i64 16
  store ptr %48, ptr %49, align 8
  call void @list_append(ptr noundef %2, ptr noundef nonnull %35) #16
  %.pre = load i32, ptr %7, align 4
  br label %50

50:                                               ; preds = %28, %34
  %51 = phi i32 [ %29, %28 ], [ %.pre, %34 ]
  %indvars.iv.next = add nuw nsw i64 %indvars.iv, 1
  %52 = sext i32 %51 to i64
  %53 = icmp slt i64 %indvars.iv.next, %52
  br i1 %53, label %28, label %._crit_edge, !llvm.loop !36

._crit_edge:                                      ; preds = %50, %21
  %54 = load i16, ptr %8, align 2
  %55 = call i32 @stepd_list_pids(i32 noundef %10, i16 noundef zeroext %54, ptr noundef nonnull %5, ptr noundef nonnull %6) #16
  %56 = load i32, ptr %6, align 4
  %.not = icmp eq i32 %56, 0
  br i1 %.not, label %._crit_edge39, label %.lr.ph38

.lr.ph38:                                         ; preds = %._crit_edge
  %57 = getelementptr inbounds nuw i8, ptr %1, i64 8
  br label %58

58:                                               ; preds = %.lr.ph38, %_in_task_array.exit
  %59 = phi i32 [ %56, %.lr.ph38 ], [ %79, %_in_task_array.exit ]
  %indvars.iv41 = phi i64 [ 0, %.lr.ph38 ], [ %indvars.iv.next42, %_in_task_array.exit ]
  %60 = load ptr, ptr %5, align 8
  %61 = getelementptr inbounds nuw i32, ptr %60, i64 %indvars.iv41
  %62 = load i32, ptr %61, align 4
  %63 = load ptr, ptr %4, align 8
  %64 = load i32, ptr %7, align 4
  %.not.i = icmp eq i32 %64, 0
  br i1 %.not.i, label %.loopexit, label %.lr.ph.preheader.i

.lr.ph.preheader.i:                               ; preds = %58
  %wide.trip.count.i = zext i32 %64 to i64
  br label %.lr.ph.i

65:                                               ; preds = %.lr.ph.i
  %indvars.iv.next.i = add nuw nsw i64 %indvars.iv.i, 1
  %exitcond.not.i = icmp eq i64 %indvars.iv.next.i, %wide.trip.count.i
  br i1 %exitcond.not.i, label %.loopexit, label %.lr.ph.i, !llvm.loop !37

.lr.ph.i:                                         ; preds = %65, %.lr.ph.preheader.i
  %indvars.iv.i = phi i64 [ 0, %.lr.ph.preheader.i ], [ %indvars.iv.next.i, %65 ]
  %66 = getelementptr inbounds nuw %struct.slurmstepd_task_info_t, ptr %63, i64 %indvars.iv.i, i32 4
  %67 = load i32, ptr %66, align 4
  %68 = icmp eq i32 %62, %67
  br i1 %68, label %_in_task_array.exit, label %65

.loopexit:                                        ; preds = %65, %58
  %69 = call ptr @slurm_xcalloc(i64 noundef 1, i64 noundef 24, i1 noundef zeroext true, i1 noundef zeroext false, ptr noundef nonnull @.str.22, i32 noundef 1694, ptr noundef nonnull @__func__._list_pids_one_step) #16
  store i32 -2, ptr %69, align 8
  %70 = load i32, ptr %57, align 8
  %71 = getelementptr inbounds nuw i8, ptr %69, i64 4
  store i32 %70, ptr %71, align 4
  %72 = getelementptr inbounds nuw i8, ptr %69, i64 8
  store i32 -2, ptr %72, align 8
  %73 = load ptr, ptr %5, align 8
  %74 = getelementptr inbounds nuw i32, ptr %73, i64 %indvars.iv41
  %75 = load i32, ptr %74, align 4
  %76 = getelementptr inbounds nuw i8, ptr %69, i64 12
  store i32 %75, ptr %76, align 4
  %77 = call ptr @xstrdup(ptr noundef nonnull %9) #16
  %78 = getelementptr inbounds nuw i8, ptr %69, i64 16
  store ptr %77, ptr %78, align 8
  call void @list_append(ptr noundef %2, ptr noundef nonnull %69) #16
  %.pre44 = load i32, ptr %6, align 4
  br label %_in_task_array.exit

_in_task_array.exit:                              ; preds = %.lr.ph.i, %.loopexit
  %79 = phi i32 [ %.pre44, %.loopexit ], [ %59, %.lr.ph.i ]
  %indvars.iv.next42 = add nuw nsw i64 %indvars.iv41, 1
  %80 = zext i32 %79 to i64
  %81 = icmp samesign ult i64 %indvars.iv.next42, %80
  br i1 %81, label %58, label %._crit_edge39, !llvm.loop !38

._crit_edge39:                                    ; preds = %_in_task_array.exit, %._crit_edge
  call void @slurm_xfree(ptr noundef nonnull %5) #16
  call void @slurm_xfree(ptr noundef nonnull %4) #16
  %82 = call i32 @close(i32 noundef %10) #16
  br label %83

83:                                               ; preds = %16, %20, %._crit_edge39
  call void @llvm.lifetime.end.p0(i64 64, ptr nonnull %9) #16
  call void @llvm.lifetime.end.p0(i64 2, ptr nonnull %8) #16
  call void @llvm.lifetime.end.p0(i64 4, ptr nonnull %7) #16
  call void @llvm.lifetime.end.p0(i64 4, ptr nonnull %6) #16
  call void @llvm.lifetime.end.p0(i64 8, ptr nonnull %5) #16
  call void @llvm.lifetime.end.p0(i64 8, ptr nonnull %4) #16
  ret void
}